target datalayout = "e-m:e-p270:32:32-p271:32:32-p272:64:64-i64:64-i128:128-f80:128-n8:16:32:64-S128"
target triple = "x86_64-pc-linux-gnu"

%struct.jpeg_compress_struct = type { ptr, ptr, ptr, ptr, i32, i32, ptr, i32, i32, i32, i32, double, i32, i32, i32, ptr, [4 x ptr], [4 x ptr], [4 x ptr], [16 x i8], [16 x i8], [16 x i8], i32, ptr, i32, i32, i32, i32, i32, i32, i32, i32, i32, i8, i8, i8, i16, i16, i32, i32, i32, i32, i32, i32, i32, [4 x ptr], i32, i32, i32, [10 x i32], i32, i32, i32, i32, ptr, ptr, ptr, ptr, ptr, ptr, ptr, ptr, ptr, ptr, i32 }
%struct.jpeg_destination_mgr = type { ptr, i64, ptr, ptr, ptr }
%struct.my_mem_destination_mgr = type { %struct.jpeg_destination_mgr, ptr, ptr, ptr, ptr, i64 }

; Function Attrs: nounwind uwtable
define internal void @term_mem_destination(ptr noundef %0) #0 {
  %2 = alloca ptr, align 8
  %3 = alloca ptr, align 8
  store ptr %0, ptr %2, align 8, !tbaa !3
  call void @llvm.lifetime.start.p0(i64 8, ptr %3) #6
  %4 = load ptr, ptr %2, align 8, !tbaa !3
  %5 = getelementptr inbounds nuw %struct.jpeg_compress_struct, ptr %4, i32 0, i32 6
  %6 = load ptr, ptr %5, align 8, !tbaa !10
  store ptr %6, ptr %3, align 8, !tbaa !40
  %7 = load ptr, ptr %3, align 8, !tbaa !40
  %8 = getelementptr inbounds nuw %struct.my_mem_destination_mgr, ptr %7, i32 0, i32 4
  %9 = load ptr, ptr %8, align 8, !tbaa !62
  %10 = load ptr, ptr %3, align 8, !tbaa !40
  %11 = getelementptr inbounds nuw %struct.my_mem_destination_mgr, ptr %10, i32 0, i32 1
  %12 = load ptr, ptr %11, align 8, !tbaa !57
  store ptr %9, ptr %12, align 8, !tbaa !60
  %13 = load ptr, ptr %3, align 8, !tbaa !40
  %14 = getelementptr inbounds nuw %struct.my_mem_destination_mgr, ptr %13, i32 0, i32 5
  %15 = load i64, ptr %14, align 8, !tbaa !64
  %16 = load ptr, ptr %3, align 8, !tbaa !40
  %17 = getelementptr inbounds nuw %struct.my_mem_destination_mgr, ptr %16, i32 0, i32 0
  %18 = getelementptr inbounds nuw %struct.jpeg_destination_mgr, ptr %17, i32 0, i32 1
  %19 = load i64, ptr %18, align 8, !tbaa !65
  %20 = sub i64 %15, %19
  %21 = load ptr, ptr %3, align 8, !tbaa !40
  %22 = getelementptr inbounds nuw %struct.my_mem_destination_mgr, ptr %21, i32 0, i32 2
  %23 = load ptr, ptr %22, align 8, !tbaa !58
  store i64 %20, ptr %23, align 8, !tbaa !49
  call void @llvm.lifetime.end.p0(i64 8, ptr %3) #6
  ret void
}