; Function Attrs: mustprogress nofree norecurse nosync nounwind willreturn memory(readwrite, inaccessiblemem: none) uwtable
define internal void @term_mem_destination(ptr noundef readonly captures(none) %0) #2 {
  %2 = getelementptr inbounds nuw i8, ptr %0, i64 40
  %3 = load ptr, ptr %2, align 8, !tbaa !3
  %4 = getelementptr inbounds nuw i8, ptr %3, i64 64
  %5 = load ptr, ptr %4, align 8, !tbaa !56
  %6 = getelementptr inbounds nuw i8, ptr %3, i64 40
  %7 = load ptr, ptr %6, align 8, !tbaa !50
  store ptr %5, ptr %7, align 8, !tbaa !53
  %8 = getelementptr inbounds nuw i8, ptr %3, i64 72
  %9 = load i64, ptr %8, align 8, !tbaa !58
  %10 = getelementptr inbounds nuw i8, ptr %3, i64 8
  %11 = load i64, ptr %10, align 8, !tbaa !59
  %12 = sub i64 %9, %11
  %13 = getelementptr inbounds nuw i8, ptr %3, i64 48
  %14 = load ptr, ptr %13, align 8, !tbaa !51
  store i64 %12, ptr %14, align 8, !tbaa !54
  ret void
}